EXPORTS
 PPLS_EMstepC
 PPLS_EMstepC_fast
 PPLS_loglC
 PPLS_loglC_fast
 PPLS_meta_Estep
 PPLS_meta_Mstep
 PPLS_simulC
 _Z19string_to_try_errorRKSs
 _Z24exception_to_r_conditionRKSt9exception
 _ZGVZ20rcpp_get_stack_tracevE3fun
 _ZGVZ20rcpp_set_stack_traceP7SEXPRECE3fun
 _ZGVZ7dataptrP7SEXPRECE3fun
 _ZGVZ8demangleRKSsE3fun
 _ZGVZN4Rcpp8internal12exitRNGScopeEvE3fun
 _ZGVZN4Rcpp8internal13enterRNGScopeEvE3fun
 _ZN4Rcpp10RstreambufILb0EE4syncEv
 _ZN4Rcpp10RstreambufILb0EE6xsputnEPKcx
 _ZN4Rcpp10RstreambufILb0EE8overflowEi
 _ZN4Rcpp10RstreambufILb0EED0Ev
 _ZN4Rcpp10RstreambufILb0EED1Ev
 _ZN4Rcpp10RstreambufILb1EE4syncEv
 _ZN4Rcpp10RstreambufILb1EE6xsputnEPKcx
 _ZN4Rcpp10RstreambufILb1EE8overflowEi
 _ZN4Rcpp10RstreambufILb1EED0Ev
 _ZN4Rcpp10RstreambufILb1EED1Ev
 _ZN4Rcpp10eval_errorD0Ev
 _ZN4Rcpp10eval_errorD1Ev
 _ZN4Rcpp12not_a_matrixD0Ev
 _ZN4Rcpp12not_a_matrixD1Ev
 _ZN4Rcpp14not_compatibleC1ERKSs
 _ZN4Rcpp14not_compatibleD0Ev
 _ZN4Rcpp14not_compatibleD1Ev
 _ZN4Rcpp15PreserveStorageINS_6VectorILi19ES0_EEED2Ev
 _ZN4Rcpp6r_castILi14EEEP7SEXPRECS2_
 _ZN4Rcpp6traits22MatrixExporterForEigenIN5Eigen6MatrixIdLin1ELin1ELi0ELin1ELin1EEEdE3getEv
 _ZN4Rcpp8RostreamILb0EED0Ev
 _ZN4Rcpp8RostreamILb0EED1Ev
 _ZN4Rcpp8RostreamILb1EED0Ev
 _ZN4Rcpp8RostreamILb1EED1Ev
 _ZN4Rcpp8internal10basic_castILi13EEEP7SEXPRECS3_
 _ZN4Rcpp8internal10basic_castILi14EEEP7SEXPRECS3_
 _ZN4Rcpp8internal12primitive_asIdEET_P7SEXPREC
 _ZN4Rcpp8internal12primitive_asIiEET_P7SEXPREC
 _ZN4Rcpp8internal2asINS_6VectorILi19ENS_15PreserveStorageEEEEET_P7SEXPRECNS_6traits18r_type_generic_tagE
 _ZN4Rcpp9RcppEigen22eigen_wrap_plain_denseIN5Eigen6MatrixIdLin1ELin1ELi0ELin1ELin1EEEEEP7SEXPRECRKT_NS_6traits17integral_constantIbLb1EEE
 _ZN4Rcpp9exceptionD0Ev
 _ZN4Rcpp9exceptionD1Ev
 _ZN5Eigen8internal19throw_std_bad_allocEv
 _ZNK4Rcpp10eval_error4whatEv
 _ZNK4Rcpp12not_a_matrix4whatEv
 _ZNK4Rcpp14not_compatible4whatEv
 _ZNK4Rcpp9exception4whatEv
 _ZTCN4Rcpp8RostreamILb0EEE0_So
 _ZTCN4Rcpp8RostreamILb1EEE0_So
 _ZTIN4Rcpp10RstreambufILb0EEE
 _ZTIN4Rcpp10RstreambufILb1EEE
 _ZTIN4Rcpp10eval_errorE
 _ZTIN4Rcpp12not_a_matrixE
 _ZTIN4Rcpp14not_compatibleE
 _ZTIN4Rcpp8RostreamILb0EEE
 _ZTIN4Rcpp8RostreamILb1EEE
 _ZTIN4Rcpp8internal20InterruptedExceptionE
 _ZTIN4Rcpp9exceptionE
 _ZTISt9bad_alloc
 _ZTISt9exception
 _ZTSN4Rcpp10RstreambufILb0EEE
 _ZTSN4Rcpp10RstreambufILb1EEE
 _ZTSN4Rcpp10eval_errorE
 _ZTSN4Rcpp12not_a_matrixE
 _ZTSN4Rcpp14not_compatibleE
 _ZTSN4Rcpp8RostreamILb0EEE
 _ZTSN4Rcpp8RostreamILb1EEE
 _ZTSN4Rcpp8internal20InterruptedExceptionE
 _ZTSN4Rcpp9exceptionE
 _ZTSSt9bad_alloc
 _ZTSSt9exception
 _ZTTN4Rcpp8RostreamILb0EEE
 _ZTTN4Rcpp8RostreamILb1EEE
 _ZTVN4Rcpp10RstreambufILb0EEE
 _ZTVN4Rcpp10RstreambufILb1EEE
 _ZTVN4Rcpp10eval_errorE
 _ZTVN4Rcpp12not_a_matrixE
 _ZTVN4Rcpp14not_compatibleE
 _ZTVN4Rcpp8RostreamILb0EEE
 _ZTVN4Rcpp8RostreamILb1EEE
 _ZTVN4Rcpp9exceptionE
 _ZTv0_n24_N4Rcpp8RostreamILb0EED0Ev
 _ZTv0_n24_N4Rcpp8RostreamILb0EED1Ev
 _ZTv0_n24_N4Rcpp8RostreamILb1EED0Ev
 _ZTv0_n24_N4Rcpp8RostreamILb1EED1Ev
 _ZZ20rcpp_get_stack_tracevE3fun
 _ZZ20rcpp_set_stack_traceP7SEXPRECE3fun
 _ZZ7dataptrP7SEXPRECE3fun
 _ZZ8demangleRKSsE3fun
 _ZZN4Rcpp8internal12exitRNGScopeEvE3fun
 _ZZN4Rcpp8internal13enterRNGScopeEvE3fun
 _Z10loglC_fastN5Eigen6MatrixIdLin1ELin1ELi0ELin1ELin1EEES1_S1_S1_ddNS0_IdLin1ELi1ELi0ELin1ELi1EEES2_S2_S2_S2_
 _Z10meta_EstepN5Eigen6MatrixIdLin1ELi1ELi0ELin1ELi1EEES1_dNS0_IdLin1ELin1ELi0ELin1ELin1EEES2_ddddddd
 _Z10meta_MstepN4Rcpp6VectorILi19ENS_15PreserveStorageEEE
 _Z12EMstepC_fastN5Eigen6MatrixIdLin1ELi1ELi0ELin1ELi1EEES1_dNS0_IdLin1ELin1ELi0ELin1ELin1EEES2_ddddddd
 _Z5loglCN5Eigen6MatrixIdLin1ELin1ELi0ELin1ELin1EEES1_S1_S1_S1_S1_dddS1_S1_S1_ddd
 _Z6simulCiN5Eigen6MatrixIdLin1ELin1ELi0ELin1ELin1EEES1_S1_S1_S1_dddS1_S1_S1_
 _Z7EMstepCN5Eigen6MatrixIdLin1ELin1ELi0ELin1ELin1EEES1_S1_S1_S1_S1_dddS1_S1_S1_S1_
 _ZGVZ7dataptrP7SEXPRECE3fun
 _ZGVZN4Rcpp8internal12exitRNGScopeEvE3fun
 _ZGVZN4Rcpp8internal13enterRNGScopeEvE3fun
 _ZN4Rcpp10RstreambufILb0EE4syncEv
 _ZN4Rcpp10RstreambufILb0EE6xsputnEPKcx
 _ZN4Rcpp10RstreambufILb0EE8overflowEi
 _ZN4Rcpp10RstreambufILb0EED0Ev
 _ZN4Rcpp10RstreambufILb0EED1Ev
 _ZN4Rcpp10RstreambufILb1EE4syncEv
 _ZN4Rcpp10RstreambufILb1EE6xsputnEPKcx
 _ZN4Rcpp10RstreambufILb1EE8overflowEi
 _ZN4Rcpp10RstreambufILb1EED0Ev
 _ZN4Rcpp10RstreambufILb1EED1Ev
 _ZN4Rcpp12not_a_matrixD0Ev
 _ZN4Rcpp12not_a_matrixD1Ev
 _ZN4Rcpp14not_compatibleC1ERKSs
 _ZN4Rcpp14not_compatibleD0Ev
 _ZN4Rcpp14not_compatibleD1Ev
 _ZN4Rcpp15PreserveStorageINS_6VectorILi14ES0_EEED2Ev
 _ZN4Rcpp15PreserveStorageINS_6VectorILi19ES0_EEED2Ev
 _ZN4Rcpp18Rcpp_ReplaceObjectEP7SEXPRECS1_
 _ZN4Rcpp19index_out_of_boundsD0Ev
 _ZN4Rcpp19index_out_of_boundsD1Ev
 _ZN4Rcpp2asIN5Eigen3MapINS1_6MatrixIdLin1ELin1ELi0ELin1ELin1EEELi0ENS1_6StrideILi0ELi0EEEEEEET_P7SEXPREC
 _ZN4Rcpp6VectorILi14ENS_15PreserveStorageEEC2ERKNS_9DimensionE
 _ZN4Rcpp6VectorILi19ENS_15PreserveStorageEE20push_back_name__implERKP7SEXPRECRKSsNS_6traits17integral_constantIbLb1EEE
 _ZN4Rcpp6r_castILi14EEEP7SEXPRECS2_
 _ZN4Rcpp6traits16IndexingExporterIN5Eigen6MatrixIdLin1ELi1ELi0ELin1ELi1EEEdE3getEv
 _ZN4Rcpp8RostreamILb0EED0Ev
 _ZN4Rcpp8RostreamILb0EED1Ev
 _ZN4Rcpp8RostreamILb1EED0Ev
 _ZN4Rcpp8RostreamILb1EED1Ev
 _ZN4Rcpp8internal10basic_castILi14EEEP7SEXPRECS3_
 _ZN4Rcpp8internal12exitRNGScopeEv
 _ZN4Rcpp8internal12primitive_asIdEET_P7SEXPREC
 _ZN4Rcpp8internal18generic_name_proxyILi19EE3setEP7SEXPREC
 _ZN4Rcpp8internal18generic_name_proxyILi19EEaSIdEERS2_RKT_
 _ZN4Rcpp8internal34primitive_range_wrap__impl__nocastIN9__gnu_cxx17__normal_iteratorIPKiSt6vectorIiSaIiEEEEiEEP7SEXPRECT_SC_St26random_access_iterator_tag
 _ZN4Rcpp8internal34primitive_range_wrap__impl__nocastIPKddEEP7SEXPRECT_S6_St26random_access_iterator_tag
 _ZN4Rcpp9RcppEigen22eigen_wrap_plain_denseIN5Eigen6MatrixIdLin1ELin1ELi0ELin1ELin1EEEEEP7SEXPRECRKT_NS_6traits17integral_constantIbLb1EEE
 _ZN5Eigen10MatrixBaseINS_5BlockINS_6MatrixIdLin1ELin1ELi0ELin1ELin1EEELin1ELin1ELb0EEEEaSINS_14CwiseNullaryOpINS_8internal18scalar_constant_opIdEES3_EEEERS4_RKNS_9DenseBaseIT_EE
 _ZN5Eigen10MatrixBaseINS_6MatrixIdLin1ELin1ELi0ELin1ELin1EEEE10lazyAssignINS_14GeneralProductINS5_INS5_IS2_S2_Li5EEES2_Li5EEENS_9TransposeIS2_EELi5EEES7_S9_EERS2_RKNS_11ProductBaseIT_T0_T1_EE
 _ZN5Eigen15PlainObjectBaseINS_6MatrixIdLin1ELi1ELi0ELin1ELi1EEEE6resizeExx
 _ZN5Eigen15PlainObjectBaseINS_6MatrixIdLin1ELin1ELi0ELin1ELin1EEEE10lazyAssignINS_13CwiseBinaryOpINS_8internal13scalar_sum_opIdEEKNS5_IS8_KNS_14GeneralProductINS9_INS9_INS9_IS2_S2_Li5EEES2_Li5EEES2_Li5EEENS_9TransposeIS2_EELi5EEEKNS9_ISA_SE_Li5EEEEESI_EEEERS2_RKNS_9DenseBaseIT_EE
 _ZN5Eigen15PlainObjectBaseINS_6MatrixIdLin1ELin1ELi0ELin1ELin1EEEE10lazyAssignINS_5BlockIS2_Lin1ELin1ELb0EEEEERS2_RKNS_9DenseBaseIT_EE
 _ZN5Eigen15PlainObjectBaseINS_6MatrixIdLin1ELin1ELi0ELin1ELin1EEEE12_set_noaliasINS_14CwiseNullaryOpINS_8internal18scalar_identity_opIdEES2_EEEERS2_RKNS_9DenseBaseIT_EE
 _ZN5Eigen15PlainObjectBaseINS_6MatrixIdLin1ELin1ELi0ELin1ELin1EEEE12_set_noaliasIS2_EERS2_RKNS_9DenseBaseIT_EE
 _ZN5Eigen15PlainObjectBaseINS_6MatrixIdLin1ELin1ELi0ELin1ELin1EEEE13_set_selectorINS_14GeneralProductINS5_INS5_IS2_S2_Li5EEES2_Li5EEENS_9TransposeIS2_EELi5EEEEEvRKT_RKNS_8internal9true_typeE
 _ZN5Eigen15PlainObjectBaseINS_6MatrixIdLin1ELin1ELi0ELin1ELin1EEEE6resizeExx
 _ZN5Eigen3LLTINS_6MatrixIdLin1ELin1ELi0ELin1ELin1EEELi1EEC1ERKS2_
 _ZN5Eigen6MatrixIdLin1ELin1ELi0ELin1ELin1EEC1INS_13CwiseBinaryOpINS_8internal13scalar_sum_opIdEEKNS3_INS4_20scalar_difference_opIdEEKNS_12CwiseUnaryOpINS4_18scalar_multiple_opIdEEKNS_14CwiseNullaryOpINS4_18scalar_identity_opIdEES1_EEEEKNS_14GeneralProductINSJ_INS_9TransposeIS1_EES1_Li5EEES1_Li5EEEEEKNSJ_INSJ_ISN_S1_Li5EEES1_Li5EEEEEEERKNS_10MatrixBaseIT_EE
 _ZN5Eigen6MatrixIdLin1ELin1ELi0ELin1ELin1EEC1INS_13CwiseBinaryOpINS_8internal13scalar_sum_opIdEEKNS_14GeneralProductINS7_INS_9TransposeIS1_EES1_Li5EEES1_Li5EEEKS1_EEEERKNS_10MatrixBaseIT_EE
 _ZN5Eigen6MatrixIdLin1ELin1ELi0ELin1ELin1EEC1INS_13CwiseBinaryOpINS_8internal20scalar_difference_opIdEEKS1_KNS_14GeneralProductINS8_INS_9TransposeIS1_EES1_Li5EEES1_Li5EEEEEEERKNS_10MatrixBaseIT_EE
 _ZN5Eigen6MatrixIdLin1ELin1ELi0ELin1ELin1EEC1INS_8DiagonalIS1_Li0EEEEERKNS_10MatrixBaseIT_EE
 _ZN5Eigen6MatrixIdLin1ELin1ELi0ELin1ELin1EEaSINS_13CwiseBinaryOpINS_8internal13scalar_sum_opIdEEKNS_14GeneralProductINS7_IS1_S1_Li5EEENS_9TransposeIS1_EELi5EEESC_EEEERS1_RKNS_10MatrixBaseIT_EE
 _ZN5Eigen8internal10redux_implINS0_13scalar_sum_opIdEENS_12CwiseUnaryOpINS0_14scalar_abs2_opIdEEKNS_13CwiseBinaryOpINS0_20scalar_difference_opIdEEKNS4_INS0_18scalar_multiple_opIdEEKNS_6MatrixIdLin1ELi1ELi0ELin1ELi1EEEEESG_EEEELi3ELi0EE3runERKSJ_RKS3_
 _ZN5Eigen8internal11assign_implINS_5BlockINS_6MatrixIdLin1ELin1ELi0ELin1ELin1EEELin1ELin1ELb0EEENS_13CwiseBinaryOpINS0_13scalar_sum_opIdEEKNS_14GeneralProductINS9_INS9_IS4_S4_Li5EEES4_Li5EEES4_Li5EEEKSA_EELi4ELi0ELi0EE3runERS5_RKSF_
 _ZN5Eigen8internal11gebp_kernelIddxLi4ELi4ELb0ELb0EEclEPdxPKdS5_xxxdxxxxS3_
 _ZN5Eigen8internal11llt_inplaceIdLi1EE7blockedINS_6MatrixIdLin1ELin1ELi0ELin1ELin1EEEEENT_5IndexERS6_
 _ZN5Eigen8internal11llt_inplaceIdLi1EE9unblockedINS_6MatrixIdLin1ELin1ELi0ELin1ELin1EEEEENT_5IndexERS6_
 _ZN5Eigen8internal13gemm_pack_lhsIdxLi4ELi2ELi0ELb0ELb0EEclEPdPKdxxxxx
 _ZN5Eigen8internal13gemm_pack_lhsIdxLi4ELi2ELi0ELb0ELb1EEclEPdPKdxxxxx
 _ZN5Eigen8internal13gemm_pack_lhsIdxLi4ELi2ELi1ELb0ELb0EEclEPdPKdxxxxx
 _ZN5Eigen8internal13gemm_pack_rhsIdxLi4ELi0ELb0ELb0EEclEPdPKdxxxxx
 _ZN5Eigen8internal13gemm_pack_rhsIdxLi4ELi0ELb0ELb1EEclEPdPKdxxxxx
 _ZN5Eigen8internal13gemm_pack_rhsIdxLi4ELi1ELb0ELb0EEclEPdPKdxxxxx
 _ZN5Eigen8internal13gemm_pack_rhsIdxLi4ELi1ELb0ELb1EEclEPdPKdxxxxx
 _ZN5Eigen8internal13gemv_selectorILi2ELi0ELb1EE3runINS_14GeneralProductINS_5BlockINS5_INS_6MatrixIdLin1ELin1ELi0ELin1ELin1EEELin1ELin1ELb0EEELin1ELin1ELb0EEENS_9TransposeIKNS5_IS8_Li1ELin1ELb0EEEEELi4EEENS5_IS8_Lin1ELi1ELb0EEEEEvRKT_RT0_RKNSG_6ScalarE
 _ZN5Eigen8internal13gemv_selectorILi2ELi0ELb1EE3runINS_14GeneralProductINS_5BlockINS_6MatrixIdLin1ELin1ELi0ELin1ELin1EEELin1ELin1ELb0EEENS_9TransposeIKNS5_IS7_Li1ELin1ELb0EEEEELi4EEENS5_IS7_Lin1ELi1ELb0EEEEEvRKT_RT0_RKNSF_6ScalarE
 _ZN5Eigen8internal13gemv_selectorILi2ELi0ELb1EE3runINS_14GeneralProductINS_6MatrixIdLin1ELin1ELi0ELin1ELin1EEENS5_IdLin1ELi1ELi0ELin1ELi1EEELi4EEES7_EEvRKT_RT0_RKNS9_6ScalarE
 _ZN5Eigen8internal13gemv_selectorILi2ELi1ELb1EE3runINS_14GeneralProductINS_9TransposeIKNS_6MatrixIdLin1ELin1ELi0ELin1ELin1EEEEENS5_IKNS_5BlockIS7_Li1ELin1ELb0EEEEELi4EEENS5_INS6_IdLi1ELin1ELi1ELi1ELin1EEEEEEEvRKT_RT0_RKNSH_6ScalarE
 _ZN5Eigen8internal13gemv_selectorILi2ELi1ELb1EE3runINS_14GeneralProductINS_9TransposeINS_6MatrixIdLin1ELin1ELi0ELin1ELin1EEEEENS6_IdLin1ELi1ELi0ELin1ELi1EEELi4EEES9_EEvRKT_RT0_RKNSB_6ScalarE
 _ZN5Eigen8internal15assign_selectorINS_3MapINS_6MatrixIdLin1ELin1ELi0ELin1ELin1EEELi0ENS_6StrideILi0ELi0EEEEENS_14GeneralProductIS7_S4_Li5EEELb1ELb0EE3runERS7_RKS9_
 _ZN5Eigen8internal15assign_selectorINS_5BlockINS_6MatrixIdLin1ELin1ELi0ELin1ELin1EEELin1ELin1ELb0EEENS_14GeneralProductINS_12CwiseUnaryOpINS0_18scalar_multiple_opIdEEKS4_EENS_9TransposeIS4_EELi5EEELb1ELb0EE3runERS5_RKSE_
 _ZN5Eigen8internal15assign_selectorINS_5BlockINS_6MatrixIdLin1ELin1ELi0ELin1ELin1EEELin1ELin1ELb0EEENS_14GeneralProductIS4_S4_Li5EEELb1ELb0EE3runERS5_RKS7_
 _ZN5Eigen8internal15queryCacheSizesERiS1_S1_
 _ZN5Eigen8internal16parallelize_gemmILb1ENS0_12gemm_functorIdxNS0_29general_matrix_matrix_productIxdLi0ELb0EdLi0ELb0ELi0EEENS_6MatrixIdLin1ELin1ELi0ELin1ELin1EEES6_S6_NS0_19gemm_blocking_spaceILi0EddLin1ELin1ELin1ELi1ELb0EEEEExEEvRKT0_T1_SD_b
 _ZN5Eigen8internal16parallelize_gemmILb1ENS0_12gemm_functorIdxNS0_29general_matrix_matrix_productIxdLi0ELb0EdLi1ELb0ELi0EEENS_3MapINS_6MatrixIdLin1ELin1ELi0ELin1ELin1EEELi0ENS_6StrideILi0ELi0EEEEENS_9TransposeIKS7_EES7_NS0_19gemm_blocking_spaceILi0EddLin1ELin1ELin1ELi1ELb0EEEEExEEvRKT0_T1_SK_b
 _ZN5Eigen8internal16parallelize_gemmILb1ENS0_12gemm_functorIdxNS0_29general_matrix_matrix_productIxdLi0ELb0EdLi1ELb0ELi0EEENS_6MatrixIdLin1ELin1ELi0ELin1ELin1EEENS_9TransposeIKS6_EES6_NS0_19gemm_blocking_spaceILi0EddLin1ELin1ELin1ELi1ELb0EEEEExEEvRKT0_T1_SG_b
 _ZN5Eigen8internal16parallelize_gemmILb1ENS0_12gemm_functorIdxNS0_29general_matrix_matrix_productIxdLi1ELb0EdLi0ELb0ELi0EEENS_9TransposeIKNS_6MatrixIdLin1ELin1ELi0ELin1ELin1EEEEES7_S7_NS0_19gemm_blocking_spaceILi0EddLin1ELin1ELin1ELi1ELb0EEEEExEEvRKT0_T1_SG_b
 _ZN5Eigen8internal19gemm_blocking_spaceILi0EddLin1ELin1ELin1ELi4ELb0EED1Ev
 _ZN5Eigen8internal19throw_std_bad_allocEv
 _ZN5Eigen8internal21queryCacheSizes_intelERiS1_S1_i
 _ZN5Eigen8internal23triangular_solve_matrixIdxLi1ELi1ELb0ELi0ELi0EE3runExxPKdxPdxRNS0_15level3_blockingIddEE
 _ZN5Eigen8internal23triangular_solve_matrixIdxLi1ELi2ELb0ELi1ELi0EE3runExxPKdxPdxRNS0_15level3_blockingIddEE
 _ZN5Eigen8internal23triangular_solve_matrixIdxLi2ELi2ELb0ELi1ELi0EE3runExxPKdxPdxRNS0_15level3_blockingIddEE
 _ZN5Eigen8internal26outer_product_selector_runINS_14GeneralProductINS_6MatrixIdLin1ELi1ELi0ELin1ELi1EEENS_9TransposeINS3_IdLin1ELin1ELi0ELin1ELin1EEEEELi2EEES6_NS8_3setEEEvRKT_RT0_RKT1_RKNS0_10false_typeE
 _ZN5Eigen8internal28conditional_aligned_new_autoIdLb1EEEPT_y
 _ZN5Eigen8internal29general_matrix_matrix_productIxdLi0ELb0EdLi0ELb0ELi0EE3runExxxPKdxS4_xPdxdRNS0_15level3_blockingIddEEPNS0_16GemmParallelInfoIxEE
 _ZN5Eigen8internal29general_matrix_matrix_productIxdLi0ELb0EdLi1ELb0ELi0EE3runExxxPKdxS4_xPdxdRNS0_15level3_blockingIddEEPNS0_16GemmParallelInfoIxEE
 _ZN5Eigen8internal29general_matrix_matrix_productIxdLi1ELb0EdLi0ELb0ELi0EE3runExxxPKdxS4_xPdxdRNS0_15level3_blockingIddEEPNS0_16GemmParallelInfoIxEE
 _ZN5Eigen8internal29general_matrix_vector_productIxdLi0ELb0EdLb0ELi0EE3runExxPKdxS4_xPdxd
 _ZN5Eigen8internal29general_matrix_vector_productIxdLi1ELb0EdLb0ELi0EE3runExxPKdxS4_xPdxd
 _ZN5Eigen8internal40general_matrix_matrix_triangular_productIxdLi0ELb0EdLi1ELb0ELi0ELi1ELi0EE3runExxPKdxS4_xPdxRS3_
 _ZN5Eigen9DenseBaseINS_5BlockINS_6MatrixIdLin1ELin1ELi0ELin1ELin1EEELin1ELin1ELb0EEEE10lazyAssignIS3_EERS4_RKNS0_IT_EE
 _ZN5Eigen9DenseBaseINS_6MatrixIdLin1ELin1ELi0ELin1ELin1EEEE7setZeroEv
 _ZNK4Rcpp12not_a_matrix4whatEv
 _ZNK4Rcpp14not_compatible4whatEv
 _ZNK4Rcpp19index_out_of_bounds4whatEv
 _ZNK4Rcpp6VectorILi19ENS_15PreserveStorageEE6offsetERKSs
 _ZNK5Eigen10MatrixBaseINS_14GeneralProductINS1_INS1_INS1_INS_6MatrixIdLin1ELin1ELi0ELin1ELin1EEES3_Li5EEES3_Li5EEES3_Li5EEENS_9TransposeIS3_EELi5EEEEplINS1_IS4_S8_Li5EEEEEKNS_13CwiseBinaryOpINS_8internal13scalar_sum_opIdEEKS9_KT_EERKNS0_ISI_EE
 _ZNK5Eigen10MatrixBaseINS_5BlockINS_6MatrixIdLin1ELin1ELi0ELin1ELin1EEELin1ELi1ELb1EEEE3dotIS4_EENS_8internal21scalar_product_traitsIdNS7_6traitsIT_E6ScalarEE10ReturnTypeERKNS0_ISA_EE
 _ZNK5Eigen10MatrixBaseINS_6MatrixIdLin1ELi1ELi0ELin1ELi1EEEE10normalizedEv
 _ZNK5Eigen10MatrixBaseINS_6MatrixIdLin1ELi1ELi0ELin1ELi1EEEE3dotIS2_EENS_8internal21scalar_product_traitsIdNS5_6traitsIT_E6ScalarEE10ReturnTypeERKNS0_IS8_EE
 _ZNK5Eigen11ProductBaseINS_14GeneralProductINS1_INS1_INS_6MatrixIdLin1ELin1ELi0ELin1ELin1EEES3_Li5EEES3_Li5EEES3_Li5EEES5_S3_EcvRKS3_Ev
 _ZNK5Eigen11ProductBaseINS_14GeneralProductINS1_INS_6MatrixIdLin1ELin1ELi0ELin1ELin1EEES3_Li5EEENS_9TransposeIS3_EELi5EEES4_S6_EcvRKS3_Ev
 _ZNK5Eigen11ProductBaseINS_14GeneralProductINS1_INS_6MatrixIdLin1ELin1ELi0ELin1ELin1EEES3_Li5EEES3_Li5EEES4_S3_E6evalToIS3_EEvRT_
 _ZNK5Eigen11ProductBaseINS_14GeneralProductINS1_INS_9TransposeINS_6MatrixIdLin1ELin1ELi0ELin1ELin1EEEEES4_Li5EEES4_Li5EEES6_S4_EcvRKS4_Ev
 _ZNK5Eigen11ProductBaseINS_14GeneralProductINS_6MatrixIdLin1ELin1ELi0ELin1ELin1EEES3_Li5EEES3_S3_EcvRKS3_Ev
 _ZNK5Eigen11ProductBaseINS_14GeneralProductINS_9TransposeINS_6MatrixIdLin1ELin1ELi0ELin1ELin1EEEEES4_Li5EEES5_S4_EcvRKS4_Ev
 _ZNK5Eigen14TriangularBaseINS_14TriangularViewIKNS_6MatrixIdLin1ELin1ELi0ELin1ELin1EEELj1EEEE10evalToLazyIS3_EEvRNS_10MatrixBaseIT_EE
 _ZNK5Eigen3LLTINS_6MatrixIdLin1ELin1ELi0ELin1ELin1EEELi1EE12solveInPlaceIS2_EEvRNS_10MatrixBaseIT_EE
 _ZTCN4Rcpp8RostreamILb0EEE0_So
 _ZTCN4Rcpp8RostreamILb1EEE0_So
 _ZTIN4Rcpp10RstreambufILb0EEE
 _ZTIN4Rcpp10RstreambufILb1EEE
 _ZTIN4Rcpp12not_a_matrixE
 _ZTIN4Rcpp14not_compatibleE
 _ZTIN4Rcpp19index_out_of_boundsE
 _ZTIN4Rcpp8RostreamILb0EEE
 _ZTIN4Rcpp8RostreamILb1EEE
 _ZTISt11logic_error
 _ZTISt16invalid_argument
 _ZTISt9bad_alloc
 _ZTISt9exception
 _ZTSN4Rcpp10RstreambufILb0EEE
 _ZTSN4Rcpp10RstreambufILb1EEE
 _ZTSN4Rcpp12not_a_matrixE
 _ZTSN4Rcpp14not_compatibleE
 _ZTSN4Rcpp19index_out_of_boundsE
 _ZTSN4Rcpp8RostreamILb0EEE
 _ZTSN4Rcpp8RostreamILb1EEE
 _ZTSSt11logic_error
 _ZTSSt16invalid_argument
 _ZTSSt9bad_alloc
 _ZTSSt9exception
 _ZTTN4Rcpp8RostreamILb0EEE
 _ZTTN4Rcpp8RostreamILb1EEE
 _ZTVN4Rcpp10RstreambufILb0EEE
 _ZTVN4Rcpp10RstreambufILb1EEE
 _ZTVN4Rcpp12not_a_matrixE
 _ZTVN4Rcpp14not_compatibleE
 _ZTVN4Rcpp19index_out_of_boundsE
 _ZTVN4Rcpp8RostreamILb0EEE
 _ZTVN4Rcpp8RostreamILb1EEE
 _ZTv0_n24_N4Rcpp8RostreamILb0EED0Ev
 _ZTv0_n24_N4Rcpp8RostreamILb0EED1Ev
 _ZTv0_n24_N4Rcpp8RostreamILb1EED0Ev
 _ZTv0_n24_N4Rcpp8RostreamILb1EED1Ev
 _ZZ7dataptrP7SEXPRECE3fun
 _ZZN4Rcpp8internal12exitRNGScopeEvE3fun
 _ZZN4Rcpp8internal13enterRNGScopeEvE3fun
 _ZZN5Eigen8internal20manage_caching_sizesENS_6ActionEPxS2_E13m_l1CacheSize
 _ZZN5Eigen8internal20manage_caching_sizesENS_6ActionEPxS2_E13m_l2CacheSize
